                                      1 ;--------------------------------------------------------
                                      2 ; File Created by SDCC : free open source ANSI-C Compiler
                                      3 ; Version 4.0.0 #11528 (Linux)
                                      4 ;--------------------------------------------------------
                                      5 	.module led_control
                                      6 	.optsdcc -mstm8
                                      7 	
                                      8 ;--------------------------------------------------------
                                      9 ; Public variables in this module
                                     10 ;--------------------------------------------------------
                                     11 	.globl _TIM4_UPD_OVF_IRQHandler
                                     12 	.globl _TIM4_ClearFlag
                                     13 	.globl _TIM4_ITConfig
                                     14 	.globl _TIM4_Cmd
                                     15 	.globl _TIM4_TimeBaseInit
                                     16 	.globl _GPIO_Init
                                     17 	.globl _ledBrightness
                                     18 	.globl _LedControl_Init
                                     19 	.globl _LedControl_GetLedBuffer
                                     20 ;--------------------------------------------------------
                                     21 ; ram data
                                     22 ;--------------------------------------------------------
                                     23 	.area DATA
      000000                         24 _ledBrightness::
      000000                         25 	.ds 28
                                     26 ;--------------------------------------------------------
                                     27 ; ram data
                                     28 ;--------------------------------------------------------
                                     29 	.area INITIALIZED
      000000                         30 _timeCount:
      000000                         31 	.ds 1
                                     32 ;--------------------------------------------------------
                                     33 ; absolute external ram data
                                     34 ;--------------------------------------------------------
                                     35 	.area DABS (ABS)
                                     36 
                                     37 ; default segment ordering for linker
                                     38 	.area HOME
                                     39 	.area GSINIT
                                     40 	.area GSFINAL
                                     41 	.area CONST
                                     42 	.area INITIALIZER
                                     43 	.area CODE
                                     44 
                                     45 ;--------------------------------------------------------
                                     46 ; global & static initialisations
                                     47 ;--------------------------------------------------------
                                     48 	.area HOME
                                     49 	.area GSINIT
                                     50 	.area GSFINAL
                                     51 	.area GSINIT
                                     52 ;--------------------------------------------------------
                                     53 ; Home
                                     54 ;--------------------------------------------------------
                                     55 	.area HOME
                                     56 	.area HOME
                                     57 ;--------------------------------------------------------
                                     58 ; code
                                     59 ;--------------------------------------------------------
                                     60 	.area CODE
                                     61 ;	source/led_control/led_control.c: 27: INTERRUPT_HANDLER(TIM4_UPD_OVF_IRQHandler, 23) {
                                     62 ;	-----------------------------------------
                                     63 ;	 function TIM4_UPD_OVF_IRQHandler
                                     64 ;	-----------------------------------------
      000000                         65 _TIM4_UPD_OVF_IRQHandler:
                                     66 ;	source/led_control/led_control.c: 38: TIM4->SR1 = (uint8_t)(~TIM4_IT_UPDATE);
      000000 35 FE 53 44      [ 1]   67 	mov	0x5344+0, #0xfe
                                     68 ;	source/led_control/led_control.c: 40: SHIFT_BIT(24); SHIFT_BIT(25); SHIFT_BIT(26); SHIFT_BIT(27);
      000004 C6u00u18         [ 1]   69 	ld	a, _ledBrightness+24
      000007 97               [ 1]   70 	ld	xl, a
      000008 C6 50 0A         [ 1]   71 	ld	a, 0x500a
      00000B 88               [ 1]   72 	push	a
      00000C 9F               [ 1]   73 	ld	a, xl
      00000D C1u00u00         [ 1]   74 	cp	a, _timeCount+0
      000010 84               [ 1]   75 	pop	a
      000011 23 07            [ 2]   76 	jrule	00102$
      000013 AA 40            [ 1]   77 	or	a, #0x40
      000015 C7 50 0A         [ 1]   78 	ld	0x500a, a
      000018 20 05            [ 2]   79 	jra	00103$
      00001A                         80 00102$:
      00001A A4 BF            [ 1]   81 	and	a, #0xbf
      00001C C7 50 0A         [ 1]   82 	ld	0x500a, a
      00001F                         83 00103$:
      00001F 72 14 50 0F      [ 1]   84 	bset	20495, #2
      000023 72 15 50 0F      [ 1]   85 	bres	20495, #2
      000027 C6u00u19         [ 1]   86 	ld	a, _ledBrightness+25
      00002A 97               [ 1]   87 	ld	xl, a
      00002B C6 50 0A         [ 1]   88 	ld	a, 0x500a
      00002E 88               [ 1]   89 	push	a
      00002F 9F               [ 1]   90 	ld	a, xl
      000030 C1u00u00         [ 1]   91 	cp	a, _timeCount+0
      000033 84               [ 1]   92 	pop	a
      000034 23 07            [ 2]   93 	jrule	00105$
      000036 AA 40            [ 1]   94 	or	a, #0x40
      000038 C7 50 0A         [ 1]   95 	ld	0x500a, a
      00003B 20 05            [ 2]   96 	jra	00106$
      00003D                         97 00105$:
      00003D A4 BF            [ 1]   98 	and	a, #0xbf
      00003F C7 50 0A         [ 1]   99 	ld	0x500a, a
      000042                        100 00106$:
      000042 72 14 50 0F      [ 1]  101 	bset	20495, #2
      000046 72 15 50 0F      [ 1]  102 	bres	20495, #2
      00004A C6u00u1A         [ 1]  103 	ld	a, _ledBrightness+26
      00004D 97               [ 1]  104 	ld	xl, a
      00004E C6 50 0A         [ 1]  105 	ld	a, 0x500a
      000051 88               [ 1]  106 	push	a
      000052 9F               [ 1]  107 	ld	a, xl
      000053 C1u00u00         [ 1]  108 	cp	a, _timeCount+0
      000056 84               [ 1]  109 	pop	a
      000057 23 07            [ 2]  110 	jrule	00108$
      000059 AA 40            [ 1]  111 	or	a, #0x40
      00005B C7 50 0A         [ 1]  112 	ld	0x500a, a
      00005E 20 05            [ 2]  113 	jra	00109$
      000060                        114 00108$:
      000060 A4 BF            [ 1]  115 	and	a, #0xbf
      000062 C7 50 0A         [ 1]  116 	ld	0x500a, a
      000065                        117 00109$:
      000065 72 14 50 0F      [ 1]  118 	bset	20495, #2
      000069 72 15 50 0F      [ 1]  119 	bres	20495, #2
      00006D C6u00u1B         [ 1]  120 	ld	a, _ledBrightness+27
      000070 97               [ 1]  121 	ld	xl, a
      000071 C6 50 0A         [ 1]  122 	ld	a, 0x500a
      000074 88               [ 1]  123 	push	a
      000075 9F               [ 1]  124 	ld	a, xl
      000076 C1u00u00         [ 1]  125 	cp	a, _timeCount+0
      000079 84               [ 1]  126 	pop	a
      00007A 23 07            [ 2]  127 	jrule	00111$
      00007C AA 40            [ 1]  128 	or	a, #0x40
      00007E C7 50 0A         [ 1]  129 	ld	0x500a, a
      000081 20 05            [ 2]  130 	jra	00112$
      000083                        131 00111$:
      000083 A4 BF            [ 1]  132 	and	a, #0xbf
      000085 C7 50 0A         [ 1]  133 	ld	0x500a, a
      000088                        134 00112$:
      000088 72 14 50 0F      [ 1]  135 	bset	20495, #2
      00008C 72 15 50 0F      [ 1]  136 	bres	20495, #2
                                    137 ;	source/led_control/led_control.c: 41: SHIFT_BIT(16); SHIFT_BIT(17); SHIFT_BIT(18); SHIFT_BIT(19); SHIFT_BIT(20); SHIFT_BIT(21); SHIFT_BIT(22); SHIFT_BIT(23);
      000090 C6u00u10         [ 1]  138 	ld	a, _ledBrightness+16
      000093 97               [ 1]  139 	ld	xl, a
                                    140 ;	source/led_control/led_control.c: 40: SHIFT_BIT(24); SHIFT_BIT(25); SHIFT_BIT(26); SHIFT_BIT(27);
      000094 C6 50 0A         [ 1]  141 	ld	a, 0x500a
                                    142 ;	source/led_control/led_control.c: 41: SHIFT_BIT(16); SHIFT_BIT(17); SHIFT_BIT(18); SHIFT_BIT(19); SHIFT_BIT(20); SHIFT_BIT(21); SHIFT_BIT(22); SHIFT_BIT(23);
      000097 88               [ 1]  143 	push	a
      000098 9F               [ 1]  144 	ld	a, xl
      000099 C1u00u00         [ 1]  145 	cp	a, _timeCount+0
      00009C 84               [ 1]  146 	pop	a
      00009D 23 07            [ 2]  147 	jrule	00114$
      00009F AA 40            [ 1]  148 	or	a, #0x40
      0000A1 C7 50 0A         [ 1]  149 	ld	0x500a, a
      0000A4 20 05            [ 2]  150 	jra	00115$
      0000A6                        151 00114$:
      0000A6 A4 BF            [ 1]  152 	and	a, #0xbf
      0000A8 C7 50 0A         [ 1]  153 	ld	0x500a, a
      0000AB                        154 00115$:
      0000AB 72 14 50 0F      [ 1]  155 	bset	20495, #2
      0000AF 72 15 50 0F      [ 1]  156 	bres	20495, #2
      0000B3 C6u00u11         [ 1]  157 	ld	a, _ledBrightness+17
      0000B6 97               [ 1]  158 	ld	xl, a
                                    159 ;	source/led_control/led_control.c: 40: SHIFT_BIT(24); SHIFT_BIT(25); SHIFT_BIT(26); SHIFT_BIT(27);
      0000B7 C6 50 0A         [ 1]  160 	ld	a, 0x500a
                                    161 ;	source/led_control/led_control.c: 41: SHIFT_BIT(16); SHIFT_BIT(17); SHIFT_BIT(18); SHIFT_BIT(19); SHIFT_BIT(20); SHIFT_BIT(21); SHIFT_BIT(22); SHIFT_BIT(23);
      0000BA 88               [ 1]  162 	push	a
      0000BB 9F               [ 1]  163 	ld	a, xl
      0000BC C1u00u00         [ 1]  164 	cp	a, _timeCount+0
      0000BF 84               [ 1]  165 	pop	a
      0000C0 23 07            [ 2]  166 	jrule	00117$
      0000C2 AA 40            [ 1]  167 	or	a, #0x40
      0000C4 C7 50 0A         [ 1]  168 	ld	0x500a, a
      0000C7 20 05            [ 2]  169 	jra	00118$
      0000C9                        170 00117$:
      0000C9 A4 BF            [ 1]  171 	and	a, #0xbf
      0000CB C7 50 0A         [ 1]  172 	ld	0x500a, a
      0000CE                        173 00118$:
      0000CE 72 14 50 0F      [ 1]  174 	bset	20495, #2
      0000D2 72 15 50 0F      [ 1]  175 	bres	20495, #2
      0000D6 C6u00u12         [ 1]  176 	ld	a, _ledBrightness+18
      0000D9 97               [ 1]  177 	ld	xl, a
                                    178 ;	source/led_control/led_control.c: 40: SHIFT_BIT(24); SHIFT_BIT(25); SHIFT_BIT(26); SHIFT_BIT(27);
      0000DA C6 50 0A         [ 1]  179 	ld	a, 0x500a
                                    180 ;	source/led_control/led_control.c: 41: SHIFT_BIT(16); SHIFT_BIT(17); SHIFT_BIT(18); SHIFT_BIT(19); SHIFT_BIT(20); SHIFT_BIT(21); SHIFT_BIT(22); SHIFT_BIT(23);
      0000DD 88               [ 1]  181 	push	a
      0000DE 9F               [ 1]  182 	ld	a, xl
      0000DF C1u00u00         [ 1]  183 	cp	a, _timeCount+0
      0000E2 84               [ 1]  184 	pop	a
      0000E3 23 07            [ 2]  185 	jrule	00120$
      0000E5 AA 40            [ 1]  186 	or	a, #0x40
      0000E7 C7 50 0A         [ 1]  187 	ld	0x500a, a
      0000EA 20 05            [ 2]  188 	jra	00121$
      0000EC                        189 00120$:
      0000EC A4 BF            [ 1]  190 	and	a, #0xbf
      0000EE C7 50 0A         [ 1]  191 	ld	0x500a, a
      0000F1                        192 00121$:
      0000F1 72 14 50 0F      [ 1]  193 	bset	20495, #2
      0000F5 72 15 50 0F      [ 1]  194 	bres	20495, #2
      0000F9 C6u00u13         [ 1]  195 	ld	a, _ledBrightness+19
      0000FC 97               [ 1]  196 	ld	xl, a
                                    197 ;	source/led_control/led_control.c: 40: SHIFT_BIT(24); SHIFT_BIT(25); SHIFT_BIT(26); SHIFT_BIT(27);
      0000FD C6 50 0A         [ 1]  198 	ld	a, 0x500a
                                    199 ;	source/led_control/led_control.c: 41: SHIFT_BIT(16); SHIFT_BIT(17); SHIFT_BIT(18); SHIFT_BIT(19); SHIFT_BIT(20); SHIFT_BIT(21); SHIFT_BIT(22); SHIFT_BIT(23);
      000100 88               [ 1]  200 	push	a
      000101 9F               [ 1]  201 	ld	a, xl
      000102 C1u00u00         [ 1]  202 	cp	a, _timeCount+0
      000105 84               [ 1]  203 	pop	a
      000106 23 07            [ 2]  204 	jrule	00123$
      000108 AA 40            [ 1]  205 	or	a, #0x40
      00010A C7 50 0A         [ 1]  206 	ld	0x500a, a
      00010D 20 05            [ 2]  207 	jra	00124$
      00010F                        208 00123$:
      00010F A4 BF            [ 1]  209 	and	a, #0xbf
      000111 C7 50 0A         [ 1]  210 	ld	0x500a, a
      000114                        211 00124$:
      000114 72 14 50 0F      [ 1]  212 	bset	20495, #2
      000118 72 15 50 0F      [ 1]  213 	bres	20495, #2
      00011C C6u00u14         [ 1]  214 	ld	a, _ledBrightness+20
      00011F 97               [ 1]  215 	ld	xl, a
                                    216 ;	source/led_control/led_control.c: 40: SHIFT_BIT(24); SHIFT_BIT(25); SHIFT_BIT(26); SHIFT_BIT(27);
      000120 C6 50 0A         [ 1]  217 	ld	a, 0x500a
                                    218 ;	source/led_control/led_control.c: 41: SHIFT_BIT(16); SHIFT_BIT(17); SHIFT_BIT(18); SHIFT_BIT(19); SHIFT_BIT(20); SHIFT_BIT(21); SHIFT_BIT(22); SHIFT_BIT(23);
      000123 88               [ 1]  219 	push	a
      000124 9F               [ 1]  220 	ld	a, xl
      000125 C1u00u00         [ 1]  221 	cp	a, _timeCount+0
      000128 84               [ 1]  222 	pop	a
      000129 23 07            [ 2]  223 	jrule	00126$
      00012B AA 40            [ 1]  224 	or	a, #0x40
      00012D C7 50 0A         [ 1]  225 	ld	0x500a, a
      000130 20 05            [ 2]  226 	jra	00127$
      000132                        227 00126$:
      000132 A4 BF            [ 1]  228 	and	a, #0xbf
      000134 C7 50 0A         [ 1]  229 	ld	0x500a, a
      000137                        230 00127$:
      000137 72 14 50 0F      [ 1]  231 	bset	20495, #2
      00013B 72 15 50 0F      [ 1]  232 	bres	20495, #2
      00013F C6u00u15         [ 1]  233 	ld	a, _ledBrightness+21
      000142 97               [ 1]  234 	ld	xl, a
                                    235 ;	source/led_control/led_control.c: 40: SHIFT_BIT(24); SHIFT_BIT(25); SHIFT_BIT(26); SHIFT_BIT(27);
      000143 C6 50 0A         [ 1]  236 	ld	a, 0x500a
                                    237 ;	source/led_control/led_control.c: 41: SHIFT_BIT(16); SHIFT_BIT(17); SHIFT_BIT(18); SHIFT_BIT(19); SHIFT_BIT(20); SHIFT_BIT(21); SHIFT_BIT(22); SHIFT_BIT(23);
      000146 88               [ 1]  238 	push	a
      000147 9F               [ 1]  239 	ld	a, xl
      000148 C1u00u00         [ 1]  240 	cp	a, _timeCount+0
      00014B 84               [ 1]  241 	pop	a
      00014C 23 07            [ 2]  242 	jrule	00129$
      00014E AA 40            [ 1]  243 	or	a, #0x40
      000150 C7 50 0A         [ 1]  244 	ld	0x500a, a
      000153 20 05            [ 2]  245 	jra	00130$
      000155                        246 00129$:
      000155 A4 BF            [ 1]  247 	and	a, #0xbf
      000157 C7 50 0A         [ 1]  248 	ld	0x500a, a
      00015A                        249 00130$:
      00015A 72 14 50 0F      [ 1]  250 	bset	20495, #2
      00015E 72 15 50 0F      [ 1]  251 	bres	20495, #2
      000162 C6u00u16         [ 1]  252 	ld	a, _ledBrightness+22
      000165 97               [ 1]  253 	ld	xl, a
                                    254 ;	source/led_control/led_control.c: 40: SHIFT_BIT(24); SHIFT_BIT(25); SHIFT_BIT(26); SHIFT_BIT(27);
      000166 C6 50 0A         [ 1]  255 	ld	a, 0x500a
                                    256 ;	source/led_control/led_control.c: 41: SHIFT_BIT(16); SHIFT_BIT(17); SHIFT_BIT(18); SHIFT_BIT(19); SHIFT_BIT(20); SHIFT_BIT(21); SHIFT_BIT(22); SHIFT_BIT(23);
      000169 88               [ 1]  257 	push	a
      00016A 9F               [ 1]  258 	ld	a, xl
      00016B C1u00u00         [ 1]  259 	cp	a, _timeCount+0
      00016E 84               [ 1]  260 	pop	a
      00016F 23 07            [ 2]  261 	jrule	00132$
      000171 AA 40            [ 1]  262 	or	a, #0x40
      000173 C7 50 0A         [ 1]  263 	ld	0x500a, a
      000176 20 05            [ 2]  264 	jra	00133$
      000178                        265 00132$:
      000178 A4 BF            [ 1]  266 	and	a, #0xbf
      00017A C7 50 0A         [ 1]  267 	ld	0x500a, a
      00017D                        268 00133$:
      00017D 72 14 50 0F      [ 1]  269 	bset	20495, #2
      000181 72 15 50 0F      [ 1]  270 	bres	20495, #2
      000185 C6u00u17         [ 1]  271 	ld	a, _ledBrightness+23
      000188 97               [ 1]  272 	ld	xl, a
                                    273 ;	source/led_control/led_control.c: 40: SHIFT_BIT(24); SHIFT_BIT(25); SHIFT_BIT(26); SHIFT_BIT(27);
      000189 C6 50 0A         [ 1]  274 	ld	a, 0x500a
                                    275 ;	source/led_control/led_control.c: 41: SHIFT_BIT(16); SHIFT_BIT(17); SHIFT_BIT(18); SHIFT_BIT(19); SHIFT_BIT(20); SHIFT_BIT(21); SHIFT_BIT(22); SHIFT_BIT(23);
      00018C 88               [ 1]  276 	push	a
      00018D 9F               [ 1]  277 	ld	a, xl
      00018E C1u00u00         [ 1]  278 	cp	a, _timeCount+0
      000191 84               [ 1]  279 	pop	a
      000192 23 07            [ 2]  280 	jrule	00135$
      000194 AA 40            [ 1]  281 	or	a, #0x40
      000196 C7 50 0A         [ 1]  282 	ld	0x500a, a
      000199 20 05            [ 2]  283 	jra	00136$
      00019B                        284 00135$:
      00019B A4 BF            [ 1]  285 	and	a, #0xbf
      00019D C7 50 0A         [ 1]  286 	ld	0x500a, a
      0001A0                        287 00136$:
      0001A0 72 14 50 0F      [ 1]  288 	bset	20495, #2
      0001A4 72 15 50 0F      [ 1]  289 	bres	20495, #2
                                    290 ;	source/led_control/led_control.c: 42: SHIFT_BIT(8); SHIFT_BIT(9); SHIFT_BIT(10); SHIFT_BIT(11); SHIFT_BIT(12); SHIFT_BIT(13); SHIFT_BIT(14); SHIFT_BIT(15); 
      0001A8 C6u00u08         [ 1]  291 	ld	a, _ledBrightness+8
      0001AB 97               [ 1]  292 	ld	xl, a
                                    293 ;	source/led_control/led_control.c: 40: SHIFT_BIT(24); SHIFT_BIT(25); SHIFT_BIT(26); SHIFT_BIT(27);
      0001AC C6 50 0A         [ 1]  294 	ld	a, 0x500a
                                    295 ;	source/led_control/led_control.c: 42: SHIFT_BIT(8); SHIFT_BIT(9); SHIFT_BIT(10); SHIFT_BIT(11); SHIFT_BIT(12); SHIFT_BIT(13); SHIFT_BIT(14); SHIFT_BIT(15); 
      0001AF 88               [ 1]  296 	push	a
      0001B0 9F               [ 1]  297 	ld	a, xl
      0001B1 C1u00u00         [ 1]  298 	cp	a, _timeCount+0
      0001B4 84               [ 1]  299 	pop	a
      0001B5 23 07            [ 2]  300 	jrule	00138$
      0001B7 AA 40            [ 1]  301 	or	a, #0x40
      0001B9 C7 50 0A         [ 1]  302 	ld	0x500a, a
      0001BC 20 05            [ 2]  303 	jra	00139$
      0001BE                        304 00138$:
      0001BE A4 BF            [ 1]  305 	and	a, #0xbf
      0001C0 C7 50 0A         [ 1]  306 	ld	0x500a, a
      0001C3                        307 00139$:
      0001C3 72 14 50 0F      [ 1]  308 	bset	20495, #2
      0001C7 72 15 50 0F      [ 1]  309 	bres	20495, #2
      0001CB C6u00u09         [ 1]  310 	ld	a, _ledBrightness+9
      0001CE 97               [ 1]  311 	ld	xl, a
                                    312 ;	source/led_control/led_control.c: 40: SHIFT_BIT(24); SHIFT_BIT(25); SHIFT_BIT(26); SHIFT_BIT(27);
      0001CF C6 50 0A         [ 1]  313 	ld	a, 0x500a
                                    314 ;	source/led_control/led_control.c: 42: SHIFT_BIT(8); SHIFT_BIT(9); SHIFT_BIT(10); SHIFT_BIT(11); SHIFT_BIT(12); SHIFT_BIT(13); SHIFT_BIT(14); SHIFT_BIT(15); 
      0001D2 88               [ 1]  315 	push	a
      0001D3 9F               [ 1]  316 	ld	a, xl
      0001D4 C1u00u00         [ 1]  317 	cp	a, _timeCount+0
      0001D7 84               [ 1]  318 	pop	a
      0001D8 23 07            [ 2]  319 	jrule	00141$
      0001DA AA 40            [ 1]  320 	or	a, #0x40
      0001DC C7 50 0A         [ 1]  321 	ld	0x500a, a
      0001DF 20 05            [ 2]  322 	jra	00142$
      0001E1                        323 00141$:
      0001E1 A4 BF            [ 1]  324 	and	a, #0xbf
      0001E3 C7 50 0A         [ 1]  325 	ld	0x500a, a
      0001E6                        326 00142$:
      0001E6 72 14 50 0F      [ 1]  327 	bset	20495, #2
      0001EA 72 15 50 0F      [ 1]  328 	bres	20495, #2
      0001EE C6u00u0A         [ 1]  329 	ld	a, _ledBrightness+10
      0001F1 97               [ 1]  330 	ld	xl, a
                                    331 ;	source/led_control/led_control.c: 40: SHIFT_BIT(24); SHIFT_BIT(25); SHIFT_BIT(26); SHIFT_BIT(27);
      0001F2 C6 50 0A         [ 1]  332 	ld	a, 0x500a
                                    333 ;	source/led_control/led_control.c: 42: SHIFT_BIT(8); SHIFT_BIT(9); SHIFT_BIT(10); SHIFT_BIT(11); SHIFT_BIT(12); SHIFT_BIT(13); SHIFT_BIT(14); SHIFT_BIT(15); 
      0001F5 88               [ 1]  334 	push	a
      0001F6 9F               [ 1]  335 	ld	a, xl
      0001F7 C1u00u00         [ 1]  336 	cp	a, _timeCount+0
      0001FA 84               [ 1]  337 	pop	a
      0001FB 23 07            [ 2]  338 	jrule	00144$
      0001FD AA 40            [ 1]  339 	or	a, #0x40
      0001FF C7 50 0A         [ 1]  340 	ld	0x500a, a
      000202 20 05            [ 2]  341 	jra	00145$
      000204                        342 00144$:
      000204 A4 BF            [ 1]  343 	and	a, #0xbf
      000206 C7 50 0A         [ 1]  344 	ld	0x500a, a
      000209                        345 00145$:
      000209 72 14 50 0F      [ 1]  346 	bset	20495, #2
      00020D 72 15 50 0F      [ 1]  347 	bres	20495, #2
      000211 C6u00u0B         [ 1]  348 	ld	a, _ledBrightness+11
      000214 97               [ 1]  349 	ld	xl, a
                                    350 ;	source/led_control/led_control.c: 40: SHIFT_BIT(24); SHIFT_BIT(25); SHIFT_BIT(26); SHIFT_BIT(27);
      000215 C6 50 0A         [ 1]  351 	ld	a, 0x500a
                                    352 ;	source/led_control/led_control.c: 42: SHIFT_BIT(8); SHIFT_BIT(9); SHIFT_BIT(10); SHIFT_BIT(11); SHIFT_BIT(12); SHIFT_BIT(13); SHIFT_BIT(14); SHIFT_BIT(15); 
      000218 88               [ 1]  353 	push	a
      000219 9F               [ 1]  354 	ld	a, xl
      00021A C1u00u00         [ 1]  355 	cp	a, _timeCount+0
      00021D 84               [ 1]  356 	pop	a
      00021E 23 07            [ 2]  357 	jrule	00147$
      000220 AA 40            [ 1]  358 	or	a, #0x40
      000222 C7 50 0A         [ 1]  359 	ld	0x500a, a
      000225 20 05            [ 2]  360 	jra	00148$
      000227                        361 00147$:
      000227 A4 BF            [ 1]  362 	and	a, #0xbf
      000229 C7 50 0A         [ 1]  363 	ld	0x500a, a
      00022C                        364 00148$:
      00022C 72 14 50 0F      [ 1]  365 	bset	20495, #2
      000230 72 15 50 0F      [ 1]  366 	bres	20495, #2
      000234 C6u00u0C         [ 1]  367 	ld	a, _ledBrightness+12
      000237 97               [ 1]  368 	ld	xl, a
                                    369 ;	source/led_control/led_control.c: 40: SHIFT_BIT(24); SHIFT_BIT(25); SHIFT_BIT(26); SHIFT_BIT(27);
      000238 C6 50 0A         [ 1]  370 	ld	a, 0x500a
                                    371 ;	source/led_control/led_control.c: 42: SHIFT_BIT(8); SHIFT_BIT(9); SHIFT_BIT(10); SHIFT_BIT(11); SHIFT_BIT(12); SHIFT_BIT(13); SHIFT_BIT(14); SHIFT_BIT(15); 
      00023B 88               [ 1]  372 	push	a
      00023C 9F               [ 1]  373 	ld	a, xl
      00023D C1u00u00         [ 1]  374 	cp	a, _timeCount+0
      000240 84               [ 1]  375 	pop	a
      000241 23 07            [ 2]  376 	jrule	00150$
      000243 AA 40            [ 1]  377 	or	a, #0x40
      000245 C7 50 0A         [ 1]  378 	ld	0x500a, a
      000248 20 05            [ 2]  379 	jra	00151$
      00024A                        380 00150$:
      00024A A4 BF            [ 1]  381 	and	a, #0xbf
      00024C C7 50 0A         [ 1]  382 	ld	0x500a, a
      00024F                        383 00151$:
      00024F 72 14 50 0F      [ 1]  384 	bset	20495, #2
      000253 72 15 50 0F      [ 1]  385 	bres	20495, #2
      000257 C6u00u0D         [ 1]  386 	ld	a, _ledBrightness+13
      00025A 97               [ 1]  387 	ld	xl, a
                                    388 ;	source/led_control/led_control.c: 40: SHIFT_BIT(24); SHIFT_BIT(25); SHIFT_BIT(26); SHIFT_BIT(27);
      00025B C6 50 0A         [ 1]  389 	ld	a, 0x500a
                                    390 ;	source/led_control/led_control.c: 42: SHIFT_BIT(8); SHIFT_BIT(9); SHIFT_BIT(10); SHIFT_BIT(11); SHIFT_BIT(12); SHIFT_BIT(13); SHIFT_BIT(14); SHIFT_BIT(15); 
      00025E 88               [ 1]  391 	push	a
      00025F 9F               [ 1]  392 	ld	a, xl
      000260 C1u00u00         [ 1]  393 	cp	a, _timeCount+0
      000263 84               [ 1]  394 	pop	a
      000264 23 07            [ 2]  395 	jrule	00153$
      000266 AA 40            [ 1]  396 	or	a, #0x40
      000268 C7 50 0A         [ 1]  397 	ld	0x500a, a
      00026B 20 05            [ 2]  398 	jra	00154$
      00026D                        399 00153$:
      00026D A4 BF            [ 1]  400 	and	a, #0xbf
      00026F C7 50 0A         [ 1]  401 	ld	0x500a, a
      000272                        402 00154$:
      000272 72 14 50 0F      [ 1]  403 	bset	20495, #2
      000276 72 15 50 0F      [ 1]  404 	bres	20495, #2
      00027A C6u00u0E         [ 1]  405 	ld	a, _ledBrightness+14
      00027D 97               [ 1]  406 	ld	xl, a
                                    407 ;	source/led_control/led_control.c: 40: SHIFT_BIT(24); SHIFT_BIT(25); SHIFT_BIT(26); SHIFT_BIT(27);
      00027E C6 50 0A         [ 1]  408 	ld	a, 0x500a
                                    409 ;	source/led_control/led_control.c: 42: SHIFT_BIT(8); SHIFT_BIT(9); SHIFT_BIT(10); SHIFT_BIT(11); SHIFT_BIT(12); SHIFT_BIT(13); SHIFT_BIT(14); SHIFT_BIT(15); 
      000281 88               [ 1]  410 	push	a
      000282 9F               [ 1]  411 	ld	a, xl
      000283 C1u00u00         [ 1]  412 	cp	a, _timeCount+0
      000286 84               [ 1]  413 	pop	a
      000287 23 07            [ 2]  414 	jrule	00156$
      000289 AA 40            [ 1]  415 	or	a, #0x40
      00028B C7 50 0A         [ 1]  416 	ld	0x500a, a
      00028E 20 05            [ 2]  417 	jra	00157$
      000290                        418 00156$:
      000290 A4 BF            [ 1]  419 	and	a, #0xbf
      000292 C7 50 0A         [ 1]  420 	ld	0x500a, a
      000295                        421 00157$:
      000295 72 14 50 0F      [ 1]  422 	bset	20495, #2
      000299 72 15 50 0F      [ 1]  423 	bres	20495, #2
      00029D C6u00u0F         [ 1]  424 	ld	a, _ledBrightness+15
      0002A0 97               [ 1]  425 	ld	xl, a
                                    426 ;	source/led_control/led_control.c: 40: SHIFT_BIT(24); SHIFT_BIT(25); SHIFT_BIT(26); SHIFT_BIT(27);
      0002A1 C6 50 0A         [ 1]  427 	ld	a, 0x500a
                                    428 ;	source/led_control/led_control.c: 42: SHIFT_BIT(8); SHIFT_BIT(9); SHIFT_BIT(10); SHIFT_BIT(11); SHIFT_BIT(12); SHIFT_BIT(13); SHIFT_BIT(14); SHIFT_BIT(15); 
      0002A4 88               [ 1]  429 	push	a
      0002A5 9F               [ 1]  430 	ld	a, xl
      0002A6 C1u00u00         [ 1]  431 	cp	a, _timeCount+0
      0002A9 84               [ 1]  432 	pop	a
      0002AA 23 07            [ 2]  433 	jrule	00159$
      0002AC AA 40            [ 1]  434 	or	a, #0x40
      0002AE C7 50 0A         [ 1]  435 	ld	0x500a, a
      0002B1 20 05            [ 2]  436 	jra	00160$
      0002B3                        437 00159$:
      0002B3 A4 BF            [ 1]  438 	and	a, #0xbf
      0002B5 C7 50 0A         [ 1]  439 	ld	0x500a, a
      0002B8                        440 00160$:
      0002B8 72 14 50 0F      [ 1]  441 	bset	20495, #2
      0002BC 72 15 50 0F      [ 1]  442 	bres	20495, #2
                                    443 ;	source/led_control/led_control.c: 43: SHIFT_BIT(0); SHIFT_BIT(1); SHIFT_BIT(2); SHIFT_BIT(3); SHIFT_BIT(4); SHIFT_BIT(5); SHIFT_BIT(6); SHIFT_BIT(7);
      0002C0 C6u00u00         [ 1]  444 	ld	a, _ledBrightness+0
      0002C3 97               [ 1]  445 	ld	xl, a
                                    446 ;	source/led_control/led_control.c: 40: SHIFT_BIT(24); SHIFT_BIT(25); SHIFT_BIT(26); SHIFT_BIT(27);
      0002C4 C6 50 0A         [ 1]  447 	ld	a, 0x500a
                                    448 ;	source/led_control/led_control.c: 43: SHIFT_BIT(0); SHIFT_BIT(1); SHIFT_BIT(2); SHIFT_BIT(3); SHIFT_BIT(4); SHIFT_BIT(5); SHIFT_BIT(6); SHIFT_BIT(7);
      0002C7 88               [ 1]  449 	push	a
      0002C8 9F               [ 1]  450 	ld	a, xl
      0002C9 C1u00u00         [ 1]  451 	cp	a, _timeCount+0
      0002CC 84               [ 1]  452 	pop	a
      0002CD 23 07            [ 2]  453 	jrule	00162$
      0002CF AA 40            [ 1]  454 	or	a, #0x40
      0002D1 C7 50 0A         [ 1]  455 	ld	0x500a, a
      0002D4 20 05            [ 2]  456 	jra	00163$
      0002D6                        457 00162$:
      0002D6 A4 BF            [ 1]  458 	and	a, #0xbf
      0002D8 C7 50 0A         [ 1]  459 	ld	0x500a, a
      0002DB                        460 00163$:
      0002DB 72 14 50 0F      [ 1]  461 	bset	20495, #2
      0002DF 72 15 50 0F      [ 1]  462 	bres	20495, #2
      0002E3 C6u00u01         [ 1]  463 	ld	a, _ledBrightness+1
      0002E6 97               [ 1]  464 	ld	xl, a
                                    465 ;	source/led_control/led_control.c: 40: SHIFT_BIT(24); SHIFT_BIT(25); SHIFT_BIT(26); SHIFT_BIT(27);
      0002E7 C6 50 0A         [ 1]  466 	ld	a, 0x500a
                                    467 ;	source/led_control/led_control.c: 43: SHIFT_BIT(0); SHIFT_BIT(1); SHIFT_BIT(2); SHIFT_BIT(3); SHIFT_BIT(4); SHIFT_BIT(5); SHIFT_BIT(6); SHIFT_BIT(7);
      0002EA 88               [ 1]  468 	push	a
      0002EB 9F               [ 1]  469 	ld	a, xl
      0002EC C1u00u00         [ 1]  470 	cp	a, _timeCount+0
      0002EF 84               [ 1]  471 	pop	a
      0002F0 23 07            [ 2]  472 	jrule	00165$
      0002F2 AA 40            [ 1]  473 	or	a, #0x40
      0002F4 C7 50 0A         [ 1]  474 	ld	0x500a, a
      0002F7 20 05            [ 2]  475 	jra	00166$
      0002F9                        476 00165$:
      0002F9 A4 BF            [ 1]  477 	and	a, #0xbf
      0002FB C7 50 0A         [ 1]  478 	ld	0x500a, a
      0002FE                        479 00166$:
      0002FE 72 14 50 0F      [ 1]  480 	bset	20495, #2
      000302 72 15 50 0F      [ 1]  481 	bres	20495, #2
      000306 C6u00u02         [ 1]  482 	ld	a, _ledBrightness+2
      000309 97               [ 1]  483 	ld	xl, a
                                    484 ;	source/led_control/led_control.c: 40: SHIFT_BIT(24); SHIFT_BIT(25); SHIFT_BIT(26); SHIFT_BIT(27);
      00030A C6 50 0A         [ 1]  485 	ld	a, 0x500a
                                    486 ;	source/led_control/led_control.c: 43: SHIFT_BIT(0); SHIFT_BIT(1); SHIFT_BIT(2); SHIFT_BIT(3); SHIFT_BIT(4); SHIFT_BIT(5); SHIFT_BIT(6); SHIFT_BIT(7);
      00030D 88               [ 1]  487 	push	a
      00030E 9F               [ 1]  488 	ld	a, xl
      00030F C1u00u00         [ 1]  489 	cp	a, _timeCount+0
      000312 84               [ 1]  490 	pop	a
      000313 23 07            [ 2]  491 	jrule	00168$
      000315 AA 40            [ 1]  492 	or	a, #0x40
      000317 C7 50 0A         [ 1]  493 	ld	0x500a, a
      00031A 20 05            [ 2]  494 	jra	00169$
      00031C                        495 00168$:
      00031C A4 BF            [ 1]  496 	and	a, #0xbf
      00031E C7 50 0A         [ 1]  497 	ld	0x500a, a
      000321                        498 00169$:
      000321 72 14 50 0F      [ 1]  499 	bset	20495, #2
      000325 72 15 50 0F      [ 1]  500 	bres	20495, #2
      000329 C6u00u03         [ 1]  501 	ld	a, _ledBrightness+3
      00032C 97               [ 1]  502 	ld	xl, a
                                    503 ;	source/led_control/led_control.c: 40: SHIFT_BIT(24); SHIFT_BIT(25); SHIFT_BIT(26); SHIFT_BIT(27);
      00032D C6 50 0A         [ 1]  504 	ld	a, 0x500a
                                    505 ;	source/led_control/led_control.c: 43: SHIFT_BIT(0); SHIFT_BIT(1); SHIFT_BIT(2); SHIFT_BIT(3); SHIFT_BIT(4); SHIFT_BIT(5); SHIFT_BIT(6); SHIFT_BIT(7);
      000330 88               [ 1]  506 	push	a
      000331 9F               [ 1]  507 	ld	a, xl
      000332 C1u00u00         [ 1]  508 	cp	a, _timeCount+0
      000335 84               [ 1]  509 	pop	a
      000336 23 07            [ 2]  510 	jrule	00171$
      000338 AA 40            [ 1]  511 	or	a, #0x40
      00033A C7 50 0A         [ 1]  512 	ld	0x500a, a
      00033D 20 05            [ 2]  513 	jra	00172$
      00033F                        514 00171$:
      00033F A4 BF            [ 1]  515 	and	a, #0xbf
      000341 C7 50 0A         [ 1]  516 	ld	0x500a, a
      000344                        517 00172$:
      000344 72 14 50 0F      [ 1]  518 	bset	20495, #2
      000348 72 15 50 0F      [ 1]  519 	bres	20495, #2
      00034C C6u00u04         [ 1]  520 	ld	a, _ledBrightness+4
      00034F 97               [ 1]  521 	ld	xl, a
                                    522 ;	source/led_control/led_control.c: 40: SHIFT_BIT(24); SHIFT_BIT(25); SHIFT_BIT(26); SHIFT_BIT(27);
      000350 C6 50 0A         [ 1]  523 	ld	a, 0x500a
                                    524 ;	source/led_control/led_control.c: 43: SHIFT_BIT(0); SHIFT_BIT(1); SHIFT_BIT(2); SHIFT_BIT(3); SHIFT_BIT(4); SHIFT_BIT(5); SHIFT_BIT(6); SHIFT_BIT(7);
      000353 88               [ 1]  525 	push	a
      000354 9F               [ 1]  526 	ld	a, xl
      000355 C1u00u00         [ 1]  527 	cp	a, _timeCount+0
      000358 84               [ 1]  528 	pop	a
      000359 23 07            [ 2]  529 	jrule	00174$
      00035B AA 40            [ 1]  530 	or	a, #0x40
      00035D C7 50 0A         [ 1]  531 	ld	0x500a, a
      000360 20 05            [ 2]  532 	jra	00175$
      000362                        533 00174$:
      000362 A4 BF            [ 1]  534 	and	a, #0xbf
      000364 C7 50 0A         [ 1]  535 	ld	0x500a, a
      000367                        536 00175$:
      000367 72 14 50 0F      [ 1]  537 	bset	20495, #2
      00036B 72 15 50 0F      [ 1]  538 	bres	20495, #2
      00036F C6u00u05         [ 1]  539 	ld	a, _ledBrightness+5
      000372 97               [ 1]  540 	ld	xl, a
                                    541 ;	source/led_control/led_control.c: 40: SHIFT_BIT(24); SHIFT_BIT(25); SHIFT_BIT(26); SHIFT_BIT(27);
      000373 C6 50 0A         [ 1]  542 	ld	a, 0x500a
                                    543 ;	source/led_control/led_control.c: 43: SHIFT_BIT(0); SHIFT_BIT(1); SHIFT_BIT(2); SHIFT_BIT(3); SHIFT_BIT(4); SHIFT_BIT(5); SHIFT_BIT(6); SHIFT_BIT(7);
      000376 88               [ 1]  544 	push	a
      000377 9F               [ 1]  545 	ld	a, xl
      000378 C1u00u00         [ 1]  546 	cp	a, _timeCount+0
      00037B 84               [ 1]  547 	pop	a
      00037C 23 07            [ 2]  548 	jrule	00177$
      00037E AA 40            [ 1]  549 	or	a, #0x40
      000380 C7 50 0A         [ 1]  550 	ld	0x500a, a
      000383 20 05            [ 2]  551 	jra	00178$
      000385                        552 00177$:
      000385 A4 BF            [ 1]  553 	and	a, #0xbf
      000387 C7 50 0A         [ 1]  554 	ld	0x500a, a
      00038A                        555 00178$:
      00038A 72 14 50 0F      [ 1]  556 	bset	20495, #2
      00038E 72 15 50 0F      [ 1]  557 	bres	20495, #2
      000392 C6u00u06         [ 1]  558 	ld	a, _ledBrightness+6
      000395 97               [ 1]  559 	ld	xl, a
                                    560 ;	source/led_control/led_control.c: 40: SHIFT_BIT(24); SHIFT_BIT(25); SHIFT_BIT(26); SHIFT_BIT(27);
      000396 C6 50 0A         [ 1]  561 	ld	a, 0x500a
                                    562 ;	source/led_control/led_control.c: 43: SHIFT_BIT(0); SHIFT_BIT(1); SHIFT_BIT(2); SHIFT_BIT(3); SHIFT_BIT(4); SHIFT_BIT(5); SHIFT_BIT(6); SHIFT_BIT(7);
      000399 88               [ 1]  563 	push	a
      00039A 9F               [ 1]  564 	ld	a, xl
      00039B C1u00u00         [ 1]  565 	cp	a, _timeCount+0
      00039E 84               [ 1]  566 	pop	a
      00039F 23 07            [ 2]  567 	jrule	00180$
      0003A1 AA 40            [ 1]  568 	or	a, #0x40
      0003A3 C7 50 0A         [ 1]  569 	ld	0x500a, a
      0003A6 20 05            [ 2]  570 	jra	00181$
      0003A8                        571 00180$:
      0003A8 A4 BF            [ 1]  572 	and	a, #0xbf
      0003AA C7 50 0A         [ 1]  573 	ld	0x500a, a
      0003AD                        574 00181$:
      0003AD 72 14 50 0F      [ 1]  575 	bset	20495, #2
      0003B1 72 15 50 0F      [ 1]  576 	bres	20495, #2
      0003B5 C6u00u07         [ 1]  577 	ld	a, _ledBrightness+7
      0003B8 97               [ 1]  578 	ld	xl, a
                                    579 ;	source/led_control/led_control.c: 40: SHIFT_BIT(24); SHIFT_BIT(25); SHIFT_BIT(26); SHIFT_BIT(27);
      0003B9 C6 50 0A         [ 1]  580 	ld	a, 0x500a
                                    581 ;	source/led_control/led_control.c: 43: SHIFT_BIT(0); SHIFT_BIT(1); SHIFT_BIT(2); SHIFT_BIT(3); SHIFT_BIT(4); SHIFT_BIT(5); SHIFT_BIT(6); SHIFT_BIT(7);
      0003BC 88               [ 1]  582 	push	a
      0003BD 9F               [ 1]  583 	ld	a, xl
      0003BE C1u00u00         [ 1]  584 	cp	a, _timeCount+0
      0003C1 84               [ 1]  585 	pop	a
      0003C2 23 07            [ 2]  586 	jrule	00183$
      0003C4 AA 40            [ 1]  587 	or	a, #0x40
      0003C6 C7 50 0A         [ 1]  588 	ld	0x500a, a
      0003C9 20 05            [ 2]  589 	jra	00184$
      0003CB                        590 00183$:
      0003CB A4 BF            [ 1]  591 	and	a, #0xbf
      0003CD C7 50 0A         [ 1]  592 	ld	0x500a, a
      0003D0                        593 00184$:
      0003D0 72 14 50 0F      [ 1]  594 	bset	20495, #2
      0003D4 72 15 50 0F      [ 1]  595 	bres	20495, #2
                                    596 ;	source/led_control/led_control.c: 45: timeCount++;
      0003D8 72 5Cu00u00      [ 1]  597 	inc	_timeCount+0
                                    598 ;	source/led_control/led_control.c: 46: if(timeCount >= LED_BRIGHTNESS_RES) {
      0003DC C6u00u00         [ 1]  599 	ld	a, _timeCount+0
      0003DF A1 32            [ 1]  600 	cp	a, #0x32
      0003E1 25 04            [ 1]  601 	jrc	00186$
                                    602 ;	source/led_control/led_control.c: 47: timeCount = 0;
      0003E3 72 5Fu00u00      [ 1]  603 	clr	_timeCount+0
      0003E7                        604 00186$:
                                    605 ;	source/led_control/led_control.c: 49: IO_HC595_LAT_SET_LOW;
      0003E7 72 1F 50 0A      [ 1]  606 	bres	20490, #7
                                    607 ;	source/led_control/led_control.c: 50: IO_HC595_LAT_SET_HIGH;
      0003EB 72 1E 50 0A      [ 1]  608 	bset	20490, #7
                                    609 ;	source/led_control/led_control.c: 51: }
      0003EF 80               [11]  610 	iret
                                    611 ;	source/led_control/led_control.c: 53: void LedControl_Init(void) {
                                    612 ;	-----------------------------------------
                                    613 ;	 function LedControl_Init
                                    614 ;	-----------------------------------------
      0003F0                        615 _LedControl_Init:
                                    616 ;	source/led_control/led_control.c: 54: GPIO_Init(IO_HC595_OE_PORT, IO_HC595_OE_PIN, GPIO_MODE_OUT_PP_HIGH_FAST);
      0003F0 4B F0            [ 1]  617 	push	#0xf0
      0003F2 4B 08            [ 1]  618 	push	#0x08
      0003F4 4B 0F            [ 1]  619 	push	#0x0f
      0003F6 4B 50            [ 1]  620 	push	#0x50
      0003F8 CDr00r00         [ 4]  621 	call	_GPIO_Init
      0003FB 5B 04            [ 2]  622 	addw	sp, #4
                                    623 ;	source/led_control/led_control.c: 55: GPIO_Init(IO_HC595_CLK_PORT, IO_HC595_CLK_PIN, GPIO_MODE_OUT_PP_HIGH_FAST);
      0003FD 4B F0            [ 1]  624 	push	#0xf0
      0003FF 4B 04            [ 1]  625 	push	#0x04
      000401 4B 0F            [ 1]  626 	push	#0x0f
      000403 4B 50            [ 1]  627 	push	#0x50
      000405 CDr00r00         [ 4]  628 	call	_GPIO_Init
      000408 5B 04            [ 2]  629 	addw	sp, #4
                                    630 ;	source/led_control/led_control.c: 56: GPIO_Init(IO_HC595_LAT_PORT, IO_HC595_LAT_PIN, GPIO_MODE_OUT_PP_HIGH_FAST);
      00040A 4B F0            [ 1]  631 	push	#0xf0
      00040C 4B 80            [ 1]  632 	push	#0x80
      00040E 4B 0A            [ 1]  633 	push	#0x0a
      000410 4B 50            [ 1]  634 	push	#0x50
      000412 CDr00r00         [ 4]  635 	call	_GPIO_Init
      000415 5B 04            [ 2]  636 	addw	sp, #4
                                    637 ;	source/led_control/led_control.c: 57: GPIO_Init(IO_HC595_DAT_PORT, IO_HC595_DAT_PIN, GPIO_MODE_OUT_PP_HIGH_FAST);
      000417 4B F0            [ 1]  638 	push	#0xf0
      000419 4B 40            [ 1]  639 	push	#0x40
      00041B 4B 0A            [ 1]  640 	push	#0x0a
      00041D 4B 50            [ 1]  641 	push	#0x50
      00041F CDr00r00         [ 4]  642 	call	_GPIO_Init
      000422 5B 04            [ 2]  643 	addw	sp, #4
                                    644 ;	source/led_control/led_control.c: 58: IO_HC595_OE_SET_LOW;
      000424 72 17 50 0F      [ 1]  645 	bres	20495, #3
                                    646 ;	source/led_control/led_control.c: 60: TIM4_TimeBaseInit(TIM4_PRESCALER_16, 124);
      000428 4B 7C            [ 1]  647 	push	#0x7c
      00042A 4B 04            [ 1]  648 	push	#0x04
      00042C CDr00r00         [ 4]  649 	call	_TIM4_TimeBaseInit
      00042F 5B 02            [ 2]  650 	addw	sp, #2
                                    651 ;	source/led_control/led_control.c: 62: TIM4_ClearFlag(TIM4_FLAG_UPDATE);
      000431 4B 01            [ 1]  652 	push	#0x01
      000433 CDr00r00         [ 4]  653 	call	_TIM4_ClearFlag
      000436 84               [ 1]  654 	pop	a
                                    655 ;	source/led_control/led_control.c: 64: TIM4_ITConfig(TIM4_IT_UPDATE, ENABLE);
      000437 4B 01            [ 1]  656 	push	#0x01
      000439 4B 01            [ 1]  657 	push	#0x01
      00043B CDr00r00         [ 4]  658 	call	_TIM4_ITConfig
      00043E 5B 02            [ 2]  659 	addw	sp, #2
                                    660 ;	source/led_control/led_control.c: 66: TIM4_Cmd(ENABLE);
      000440 4B 01            [ 1]  661 	push	#0x01
      000442 CDr00r00         [ 4]  662 	call	_TIM4_Cmd
      000445 84               [ 1]  663 	pop	a
                                    664 ;	source/led_control/led_control.c: 67: }
      000446 81               [ 4]  665 	ret
                                    666 ;	source/led_control/led_control.c: 69: uint8_t *LedControl_GetLedBuffer(void) {
                                    667 ;	-----------------------------------------
                                    668 ;	 function LedControl_GetLedBuffer
                                    669 ;	-----------------------------------------
      000447                        670 _LedControl_GetLedBuffer:
                                    671 ;	source/led_control/led_control.c: 70: return ledBrightness;
      000447 AEr00r00         [ 2]  672 	ldw	x, #(_ledBrightness + 0)
                                    673 ;	source/led_control/led_control.c: 71: }
      00044A 81               [ 4]  674 	ret
                                    675 	.area CODE
                                    676 	.area CONST
                                    677 	.area INITIALIZER
      000000                        678 __xinit__timeCount:
      000000 00                     679 	.db #0x00	; 0
                                    680 	.area CABS (ABS)
